; Function Attrs: mustprogress uwtable
define void @_ZN5Ipopt25IpoptCalculatedQuantities16unscaled_trial_cEv(ptr dead_on_unwind noalias writable sret(%"class.Ipopt::SmartPtr.44") align 8 %0, ptr noundef nonnull align 8 dereferenceable(2185) %1) local_unnamed_addr #6 align 2 personality ptr @__gxx_personality_v0 {
  %3 = alloca %"class.Ipopt::SmartPtr.44", align 8
  %4 = getelementptr inbounds nuw i8, ptr %1, i64 16
  %5 = load ptr, ptr %4, align 8, !tbaa !21
  %6 = getelementptr inbounds nuw i8, ptr %5, i64 16
  %7 = load ptr, ptr %6, align 8, !tbaa !426, !noalias !637
  %.not.i.i.i.i = icmp eq ptr %7, null
  br i1 %.not.i.i.i.i, label %_ZNK5Ipopt8IpoptNLP11NLP_scalingEv.exit, label %8

8:                                                ; preds = %2
  %9 = getelementptr inbounds nuw i8, ptr %7, i64 8
  %10 = load i32, ptr %9, align 8, !tbaa !13, !noalias !637
  %11 = add nsw i32 %10, 1
  store i32 %11, ptr %9, align 8, !tbaa !13, !noalias !637
  br label %_ZNK5Ipopt8IpoptNLP11NLP_scalingEv.exit

_ZNK5Ipopt8IpoptNLP11NLP_scalingEv.exit:          ; preds = %2, %8
  call void @llvm.lifetime.start.p0(i64 8, ptr nonnull %3) #26
  invoke void @_ZN5Ipopt25IpoptCalculatedQuantities7trial_cEv(ptr dead_on_unwind nonnull writable sret(%"class.Ipopt::SmartPtr.44") align 8 %3, ptr noundef nonnull align 8 dereferenceable(2185) %1)
          to label %12 unwind label %_ZN5Ipopt8SmartPtrIKNS_6VectorEED2Ev.exit6

12:                                               ; preds = %_ZNK5Ipopt8IpoptNLP11NLP_scalingEv.exit
  %13 = load ptr, ptr %7, align 8, !tbaa !16
  %14 = getelementptr inbounds nuw i8, ptr %13, i64 72
  %15 = load ptr, ptr %14, align 8
  invoke void %15(ptr dead_on_unwind writable sret(%"class.Ipopt::SmartPtr.44") align 8 %0, ptr noundef nonnull align 8 dereferenceable(24) %7, ptr noundef nonnull align 8 dereferenceable(8) %3)
          to label %16 unwind label %36

16:                                               ; preds = %12
  %17 = load ptr, ptr %3, align 8, !tbaa !10
  %.not.i.i = icmp eq ptr %17, null
  br i1 %.not.i.i, label %27, label %18

18:                                               ; preds = %16
  %19 = getelementptr inbounds nuw i8, ptr %17, i64 8
  %20 = load i32, ptr %19, align 8, !tbaa !13
  %21 = add nsw i32 %20, -1
  store i32 %21, ptr %19, align 8, !tbaa !13
  %22 = icmp eq i32 %21, 0
  br i1 %22, label %23, label %27

23:                                               ; preds = %18
  %24 = load ptr, ptr %17, align 8, !tbaa !16
  %25 = getelementptr inbounds nuw i8, ptr %24, i64 8
  %26 = load ptr, ptr %25, align 8
  call void %26(ptr noundef nonnull align 8 dereferenceable(205) %17) #26
  br label %27

27:                                               ; preds = %23, %18, %16
  call void @llvm.lifetime.end.p0(i64 8, ptr nonnull %3) #26
  %28 = getelementptr inbounds nuw i8, ptr %7, i64 8
  %29 = load i32, ptr %28, align 8, !tbaa !13
  %30 = add nsw i32 %29, -1
  store i32 %30, ptr %28, align 8, !tbaa !13
  %31 = icmp eq i32 %30, 0
  br i1 %31, label %32, label %_ZN5Ipopt8SmartPtrINS_16NLPScalingObjectEED2Ev.exit

32:                                               ; preds = %27
  %33 = load ptr, ptr %7, align 8, !tbaa !16
  %34 = getelementptr inbounds nuw i8, ptr %33, i64 8
  %35 = load ptr, ptr %34, align 8
  call void %35(ptr noundef nonnull align 8 dereferenceable(24) %7) #26
  br label %_ZN5Ipopt8SmartPtrINS_16NLPScalingObjectEED2Ev.exit

_ZN5Ipopt8SmartPtrINS_16NLPScalingObjectEED2Ev.exit: ; preds = %27, %32
  ret void

36:                                               ; preds = %12
  %37 = landingpad { ptr, i32 }
          cleanup
  %38 = load ptr, ptr %3, align 8, !tbaa !10
  %.not.i.i5 = icmp eq ptr %38, null
  br i1 %.not.i.i5, label %_ZN5Ipopt8SmartPtrIKNS_6VectorEED2Ev.exit6.thread, label %39

39:                                               ; preds = %36
  %40 = getelementptr inbounds nuw i8, ptr %38, i64 8
  %41 = load i32, ptr %40, align 8, !tbaa !13
  %42 = add nsw i32 %41, -1
  store i32 %42, ptr %40, align 8, !tbaa !13
  %43 = icmp eq i32 %42, 0
  br i1 %43, label %44, label %_ZN5Ipopt8SmartPtrIKNS_6VectorEED2Ev.exit6.thread

44:                                               ; preds = %39
  %45 = load ptr, ptr %38, align 8, !tbaa !16
  %46 = getelementptr inbounds nuw i8, ptr %45, i64 8
  %47 = load ptr, ptr %46, align 8
  call void %47(ptr noundef nonnull align 8 dereferenceable(205) %38) #26
  br label %_ZN5Ipopt8SmartPtrIKNS_6VectorEED2Ev.exit6.thread

_ZN5Ipopt8SmartPtrIKNS_6VectorEED2Ev.exit6.thread: ; preds = %44, %39, %36
  call void @llvm.lifetime.end.p0(i64 8, ptr nonnull %3) #26
  br label %49

_ZN5Ipopt8SmartPtrIKNS_6VectorEED2Ev.exit6:       ; preds = %_ZNK5Ipopt8IpoptNLP11NLP_scalingEv.exit
  %48 = landingpad { ptr, i32 }
          cleanup
  call void @llvm.lifetime.end.p0(i64 8, ptr nonnull %3) #26
  br i1 %.not.i.i.i.i, label %_ZN5Ipopt8SmartPtrINS_16NLPScalingObjectEED2Ev.exit8, label %49

49:                                               ; preds = %_ZN5Ipopt8SmartPtrIKNS_6VectorEED2Ev.exit6.thread, %_ZN5Ipopt8SmartPtrIKNS_6VectorEED2Ev.exit6
  %.pn12 = phi { ptr, i32 } [ %37, %_ZN5Ipopt8SmartPtrIKNS_6VectorEED2Ev.exit6.thread ], [ %48, %_ZN5Ipopt8SmartPtrIKNS_6VectorEED2Ev.exit6 ]
  %50 = getelementptr inbounds nuw i8, ptr %7, i64 8
  %51 = load i32, ptr %50, align 8, !tbaa !13
  %52 = add nsw i32 %51, -1
  store i32 %52, ptr %50, align 8, !tbaa !13
  %53 = icmp eq i32 %52, 0
  br i1 %53, label %54, label %_ZN5Ipopt8SmartPtrINS_16NLPScalingObjectEED2Ev.exit8

54:                                               ; preds = %49
  %55 = load ptr, ptr %7, align 8, !tbaa !16
  %56 = getelementptr inbounds nuw i8, ptr %55, i64 8
  %57 = load ptr, ptr %56, align 8
  call void %57(ptr noundef nonnull align 8 dereferenceable(24) %7) #26
  br label %_ZN5Ipopt8SmartPtrINS_16NLPScalingObjectEED2Ev.exit8

_ZN5Ipopt8SmartPtrINS_16NLPScalingObjectEED2Ev.exit8: ; preds = %_ZN5Ipopt8SmartPtrIKNS_6VectorEED2Ev.exit6, %49, %54
  %.pn13 = phi { ptr, i32 } [ %48, %_ZN5Ipopt8SmartPtrIKNS_6VectorEED2Ev.exit6 ], [ %.pn12, %49 ], [ %.pn12, %54 ]
  resume { ptr, i32 } %.pn13
}